ARM GAS  C:\Users\ADMINI~1\AppData\Local\Temp\cc3w2Luk.s 			page 1


   1              		.cpu cortex-m0
   2              		.arch armv6s-m
   3              		.fpu softvfp
   4              		.eabi_attribute 20, 1
   5              		.eabi_attribute 21, 1
   6              		.eabi_attribute 23, 3
   7              		.eabi_attribute 24, 1
   8              		.eabi_attribute 25, 1
   9              		.eabi_attribute 26, 1
  10              		.eabi_attribute 30, 4
  11              		.eabi_attribute 34, 0
  12              		.eabi_attribute 18, 4
  13              		.file	"main.c"
  14              		.text
  15              	.Ltext0:
  16              		.cfi_sections	.debug_frame
  17              		.section	.text.SystemClock_Config,"ax",%progbits
  18              		.align	1
  19              		.global	SystemClock_Config
  20              		.syntax unified
  21              		.code	16
  22              		.thumb_func
  24              	SystemClock_Config:
  25              	.LFB44:
  26              		.file 1 "Core/Src/main.c"
   1:Core/Src/main.c **** /* USER CODE BEGIN Header */
   2:Core/Src/main.c **** /**
   3:Core/Src/main.c ****   ******************************************************************************
   4:Core/Src/main.c ****   * @file           : main.c
   5:Core/Src/main.c ****   * @brief          : Main program body
   6:Core/Src/main.c ****   ******************************************************************************
   7:Core/Src/main.c ****   * @attention
   8:Core/Src/main.c ****   *
   9:Core/Src/main.c ****   * <h2><center>&copy; Copyright (c) 2022 STMicroelectronics.
  10:Core/Src/main.c ****   * All rights reserved.</center></h2>
  11:Core/Src/main.c ****   *
  12:Core/Src/main.c ****   * This software component is licensed by ST under BSD 3-Clause license,
  13:Core/Src/main.c ****   * the "License"; You may not use this file except in compliance with the
  14:Core/Src/main.c ****   * License. You may obtain a copy of the License at:
  15:Core/Src/main.c ****   *                        opensource.org/licenses/BSD-3-Clause
  16:Core/Src/main.c ****   *
  17:Core/Src/main.c ****   ******************************************************************************
  18:Core/Src/main.c ****   */
  19:Core/Src/main.c **** /* USER CODE END Header */
  20:Core/Src/main.c **** /* Includes ------------------------------------------------------------------*/
  21:Core/Src/main.c **** #include "main.h"
  22:Core/Src/main.c **** #include "dma.h"
  23:Core/Src/main.c **** #include "i2c.h"
  24:Core/Src/main.c **** #include "spi.h"
  25:Core/Src/main.c **** #include "usart.h"
  26:Core/Src/main.c **** #include "gpio.h"
  27:Core/Src/main.c **** 
  28:Core/Src/main.c **** /* Private includes ----------------------------------------------------------*/
  29:Core/Src/main.c **** /* USER CODE BEGIN Includes */
  30:Core/Src/main.c **** #include "System_Tick.h"
  31:Core/Src/main.c **** #include "Uart_Driver.h"
  32:Core/Src/main.c **** #include "Baro_MS5611.h"
ARM GAS  C:\Users\ADMINI~1\AppData\Local\Temp\cc3w2Luk.s 			page 2


  33:Core/Src/main.c **** #include "ICM20602.h"
  34:Core/Src/main.c **** #include "HMC5983.h"
  35:Core/Src/main.c **** /* USER CODE END Includes */
  36:Core/Src/main.c **** 
  37:Core/Src/main.c **** /* Private typedef -----------------------------------------------------------*/
  38:Core/Src/main.c **** /* USER CODE BEGIN PTD */
  39:Core/Src/main.c **** 
  40:Core/Src/main.c **** /* USER CODE END PTD */
  41:Core/Src/main.c **** 
  42:Core/Src/main.c **** /* Private define ------------------------------------------------------------*/
  43:Core/Src/main.c **** /* USER CODE BEGIN PD */
  44:Core/Src/main.c **** /* USER CODE END PD */
  45:Core/Src/main.c **** 
  46:Core/Src/main.c **** /* Private macro -------------------------------------------------------------*/
  47:Core/Src/main.c **** /* USER CODE BEGIN PM */
  48:Core/Src/main.c **** 
  49:Core/Src/main.c **** /* USER CODE END PM */
  50:Core/Src/main.c **** 
  51:Core/Src/main.c **** /* Private variables ---------------------------------------------------------*/
  52:Core/Src/main.c **** 
  53:Core/Src/main.c **** /* USER CODE BEGIN PV */
  54:Core/Src/main.c **** 
  55:Core/Src/main.c **** /* USER CODE END PV */
  56:Core/Src/main.c **** 
  57:Core/Src/main.c **** /* Private function prototypes -----------------------------------------------*/
  58:Core/Src/main.c **** void SystemClock_Config(void);
  59:Core/Src/main.c **** /* USER CODE BEGIN PFP */
  60:Core/Src/main.c **** 
  61:Core/Src/main.c **** /* USER CODE END PFP */
  62:Core/Src/main.c **** 
  63:Core/Src/main.c **** /* Private user code ---------------------------------------------------------*/
  64:Core/Src/main.c **** /* USER CODE BEGIN 0 */
  65:Core/Src/main.c **** 
  66:Core/Src/main.c **** /* USER CODE END 0 */
  67:Core/Src/main.c **** 
  68:Core/Src/main.c **** /**
  69:Core/Src/main.c ****   * @brief  The application entry point.
  70:Core/Src/main.c ****   * @retval int
  71:Core/Src/main.c ****   */
  72:Core/Src/main.c **** int main(void)
  73:Core/Src/main.c **** {
  74:Core/Src/main.c ****   /* USER CODE BEGIN 1 */
  75:Core/Src/main.c **** 
  76:Core/Src/main.c ****   /* USER CODE END 1 */
  77:Core/Src/main.c **** 
  78:Core/Src/main.c ****   /* MCU Configuration--------------------------------------------------------*/
  79:Core/Src/main.c **** 
  80:Core/Src/main.c ****   /* Reset of all peripherals, Initializes the Flash interface and the Systick. */
  81:Core/Src/main.c ****   HAL_Init();
  82:Core/Src/main.c **** 
  83:Core/Src/main.c ****   /* USER CODE BEGIN Init */
  84:Core/Src/main.c **** 
  85:Core/Src/main.c ****   /* USER CODE END Init */
  86:Core/Src/main.c **** 
  87:Core/Src/main.c ****   /* Configure the system clock */
  88:Core/Src/main.c ****   SystemClock_Config();
  89:Core/Src/main.c **** 
ARM GAS  C:\Users\ADMINI~1\AppData\Local\Temp\cc3w2Luk.s 			page 3


  90:Core/Src/main.c ****   /* USER CODE BEGIN SysInit */
  91:Core/Src/main.c **** 
  92:Core/Src/main.c ****   /* USER CODE END SysInit */
  93:Core/Src/main.c **** 
  94:Core/Src/main.c ****   /* Initialize all configured peripherals */
  95:Core/Src/main.c ****   MX_GPIO_Init();
  96:Core/Src/main.c ****   MX_DMA_Init();
  97:Core/Src/main.c ****   MX_SPI1_Init();
  98:Core/Src/main.c ****   MX_USART1_UART_Init();
  99:Core/Src/main.c ****   MX_I2C1_Init();
 100:Core/Src/main.c ****   /* USER CODE BEGIN 2 */
 101:Core/Src/main.c **** 	
 102:Core/Src/main.c ****   Sens_MS5611 ms5611;
 103:Core/Src/main.c **** 	Sens_ICM20 icm20;
 104:Core/Src/main.c **** 	Sens_HMC5983 hmc5983;
 105:Core/Src/main.c **** 
 106:Core/Src/main.c ****   uint8_t status = 0;
 107:Core/Src/main.c **** 
 108:Core/Src/main.c ****   status += Baro_Init(&ms5611);
 109:Core/Src/main.c **** 	status += ICM20_Init(&icm20);
 110:Core/Src/main.c **** 	status += HMC5983_Init(&hmc5983);
 111:Core/Src/main.c **** 
 112:Core/Src/main.c ****   if(status) {
 113:Core/Src/main.c ****     Debug_Printf("Sensors initial failed!\r\n");
 114:Core/Src/main.c ****   }
 115:Core/Src/main.c ****   else {
 116:Core/Src/main.c ****     Debug_Printf("Sensors initial succeeded!\r\n");
 117:Core/Src/main.c ****   }
 118:Core/Src/main.c ****   /* USER CODE END 2 */
 119:Core/Src/main.c **** 
 120:Core/Src/main.c ****   /* Infinite loop */
 121:Core/Src/main.c ****   /* USER CODE BEGIN WHILE */
 122:Core/Src/main.c ****   while (1)
 123:Core/Src/main.c ****   {
 124:Core/Src/main.c ****     /* USER CODE END WHILE */
 125:Core/Src/main.c **** 
 126:Core/Src/main.c ****     /* USER CODE BEGIN 3 */
 127:Core/Src/main.c **** 		//Debug_Printf("Hello\r\n");
 128:Core/Src/main.c **** 		uint8_t status = ICM20_GetAccelADC(&icm20);
 129:Core/Src/main.c **** 		ICM20_GetGyroADC(&icm20);
 130:Core/Src/main.c **** 		ICM20_GetTemperatue(&icm20);
 131:Core/Src/main.c **** 		Debug_Printf("gyro %d %d %d \r\n", icm20.gyro_adc[0], icm20.gyro_adc[1], icm20.gyro_adc[2]);
 132:Core/Src/main.c **** 		Sys_Delay(1000);
 133:Core/Src/main.c ****   }
 134:Core/Src/main.c ****   /* USER CODE END 3 */
 135:Core/Src/main.c **** }
 136:Core/Src/main.c **** 
 137:Core/Src/main.c **** /**
 138:Core/Src/main.c ****   * @brief System Clock Configuration
 139:Core/Src/main.c ****   * @retval None
 140:Core/Src/main.c ****   */
 141:Core/Src/main.c **** void SystemClock_Config(void)
 142:Core/Src/main.c **** {
  27              		.loc 1 142 1 view -0
  28              		.cfi_startproc
  29              		@ args = 0, pretend = 0, frame = 80
  30              		@ frame_needed = 0, uses_anonymous_args = 0
ARM GAS  C:\Users\ADMINI~1\AppData\Local\Temp\cc3w2Luk.s 			page 4


 143:Core/Src/main.c ****   RCC_OscInitTypeDef RCC_OscInitStruct = {0};
  31              		.loc 1 143 3 view .LVU1
 142:Core/Src/main.c ****   RCC_OscInitTypeDef RCC_OscInitStruct = {0};
  32              		.loc 1 142 1 is_stmt 0 view .LVU2
  33 0000 70B5     		push	{r4, r5, r6, lr}
  34              	.LCFI0:
  35              		.cfi_def_cfa_offset 16
  36              		.cfi_offset 4, -16
  37              		.cfi_offset 5, -12
  38              		.cfi_offset 6, -8
  39              		.cfi_offset 14, -4
 144:Core/Src/main.c ****   RCC_ClkInitTypeDef RCC_ClkInitStruct = {0};
  40              		.loc 1 144 22 view .LVU3
  41 0002 1026     		movs	r6, #16
 142:Core/Src/main.c ****   RCC_OscInitTypeDef RCC_OscInitStruct = {0};
  42              		.loc 1 142 1 view .LVU4
  43 0004 94B0     		sub	sp, sp, #80
  44              	.LCFI1:
  45              		.cfi_def_cfa_offset 96
 143:Core/Src/main.c ****   RCC_OscInitTypeDef RCC_OscInitStruct = {0};
  46              		.loc 1 143 22 view .LVU5
  47 0006 2C22     		movs	r2, #44
  48 0008 0021     		movs	r1, #0
  49 000a 09A8     		add	r0, sp, #36
  50 000c FFF7FEFF 		bl	memset
  51              	.LVL0:
  52              		.loc 1 144 3 is_stmt 1 view .LVU6
  53              		.loc 1 144 22 is_stmt 0 view .LVU7
  54 0010 3200     		movs	r2, r6
  55 0012 0021     		movs	r1, #0
  56 0014 6846     		mov	r0, sp
  57 0016 FFF7FEFF 		bl	memset
  58              	.LVL1:
 145:Core/Src/main.c ****   RCC_PeriphCLKInitTypeDef PeriphClkInit = {0};
  59              		.loc 1 145 3 is_stmt 1 view .LVU8
  60              		.loc 1 145 28 is_stmt 0 view .LVU9
  61 001a 3200     		movs	r2, r6
  62 001c 0021     		movs	r1, #0
  63 001e 04A8     		add	r0, sp, #16
  64 0020 FFF7FEFF 		bl	memset
  65              	.LVL2:
 146:Core/Src/main.c **** 
 147:Core/Src/main.c ****   /** Initializes the RCC Oscillators according to the specified parameters
 148:Core/Src/main.c ****   * in the RCC_OscInitTypeDef structure.
 149:Core/Src/main.c ****   */
 150:Core/Src/main.c ****   RCC_OscInitStruct.OscillatorType = RCC_OSCILLATORTYPE_HSI;
  66              		.loc 1 150 3 is_stmt 1 view .LVU10
 151:Core/Src/main.c ****   RCC_OscInitStruct.HSIState = RCC_HSI_ON;
 152:Core/Src/main.c ****   RCC_OscInitStruct.HSICalibrationValue = RCC_HSICALIBRATION_DEFAULT;
 153:Core/Src/main.c ****   RCC_OscInitStruct.PLL.PLLState = RCC_PLL_ON;
 154:Core/Src/main.c ****   RCC_OscInitStruct.PLL.PLLSource = RCC_PLLSOURCE_HSI;
 155:Core/Src/main.c ****   RCC_OscInitStruct.PLL.PLLMUL = RCC_PLL_MUL12;
  67              		.loc 1 155 32 is_stmt 0 view .LVU11
  68 0024 A023     		movs	r3, #160
 150:Core/Src/main.c ****   RCC_OscInitStruct.HSIState = RCC_HSI_ON;
  69              		.loc 1 150 36 view .LVU12
  70 0026 0224     		movs	r4, #2
ARM GAS  C:\Users\ADMINI~1\AppData\Local\Temp\cc3w2Luk.s 			page 5


 151:Core/Src/main.c ****   RCC_OscInitStruct.HSIState = RCC_HSI_ON;
  71              		.loc 1 151 30 view .LVU13
  72 0028 0125     		movs	r5, #1
  73              		.loc 1 155 32 view .LVU14
  74 002a 9B03     		lsls	r3, r3, #14
 156:Core/Src/main.c ****   RCC_OscInitStruct.PLL.PREDIV = RCC_PREDIV_DIV1;
 157:Core/Src/main.c ****   if (HAL_RCC_OscConfig(&RCC_OscInitStruct) != HAL_OK)
  75              		.loc 1 157 7 view .LVU15
  76 002c 08A8     		add	r0, sp, #32
 150:Core/Src/main.c ****   RCC_OscInitStruct.HSIState = RCC_HSI_ON;
  77              		.loc 1 150 36 view .LVU16
  78 002e 0894     		str	r4, [sp, #32]
 151:Core/Src/main.c ****   RCC_OscInitStruct.HSICalibrationValue = RCC_HSICALIBRATION_DEFAULT;
  79              		.loc 1 151 3 is_stmt 1 view .LVU17
 151:Core/Src/main.c ****   RCC_OscInitStruct.HSICalibrationValue = RCC_HSICALIBRATION_DEFAULT;
  80              		.loc 1 151 30 is_stmt 0 view .LVU18
  81 0030 0B95     		str	r5, [sp, #44]
 152:Core/Src/main.c ****   RCC_OscInitStruct.PLL.PLLState = RCC_PLL_ON;
  82              		.loc 1 152 3 is_stmt 1 view .LVU19
 152:Core/Src/main.c ****   RCC_OscInitStruct.PLL.PLLState = RCC_PLL_ON;
  83              		.loc 1 152 41 is_stmt 0 view .LVU20
  84 0032 0C96     		str	r6, [sp, #48]
 153:Core/Src/main.c ****   RCC_OscInitStruct.PLL.PLLSource = RCC_PLLSOURCE_HSI;
  85              		.loc 1 153 3 is_stmt 1 view .LVU21
 153:Core/Src/main.c ****   RCC_OscInitStruct.PLL.PLLSource = RCC_PLLSOURCE_HSI;
  86              		.loc 1 153 34 is_stmt 0 view .LVU22
  87 0034 1094     		str	r4, [sp, #64]
 154:Core/Src/main.c ****   RCC_OscInitStruct.PLL.PLLMUL = RCC_PLL_MUL12;
  88              		.loc 1 154 3 is_stmt 1 view .LVU23
 155:Core/Src/main.c ****   RCC_OscInitStruct.PLL.PREDIV = RCC_PREDIV_DIV1;
  89              		.loc 1 155 3 view .LVU24
 155:Core/Src/main.c ****   RCC_OscInitStruct.PLL.PREDIV = RCC_PREDIV_DIV1;
  90              		.loc 1 155 32 is_stmt 0 view .LVU25
  91 0036 1293     		str	r3, [sp, #72]
 156:Core/Src/main.c ****   if (HAL_RCC_OscConfig(&RCC_OscInitStruct) != HAL_OK)
  92              		.loc 1 156 3 is_stmt 1 view .LVU26
  93              		.loc 1 157 3 view .LVU27
  94              		.loc 1 157 7 is_stmt 0 view .LVU28
  95 0038 FFF7FEFF 		bl	HAL_RCC_OscConfig
  96              	.LVL3:
  97              		.loc 1 157 6 view .LVU29
  98 003c 0028     		cmp	r0, #0
  99 003e 01D0     		beq	.L2
 158:Core/Src/main.c ****   {
 159:Core/Src/main.c ****     Error_Handler();
 100              		.loc 1 159 5 is_stmt 1 view .LVU30
 101              	.LBB16:
 102              	.LBI16:
 160:Core/Src/main.c ****   }
 161:Core/Src/main.c ****   /** Initializes the CPU, AHB and APB buses clocks
 162:Core/Src/main.c ****   */
 163:Core/Src/main.c ****   RCC_ClkInitStruct.ClockType = RCC_CLOCKTYPE_HCLK|RCC_CLOCKTYPE_SYSCLK
 164:Core/Src/main.c ****                               |RCC_CLOCKTYPE_PCLK1;
 165:Core/Src/main.c ****   RCC_ClkInitStruct.SYSCLKSource = RCC_SYSCLKSOURCE_PLLCLK;
 166:Core/Src/main.c ****   RCC_ClkInitStruct.AHBCLKDivider = RCC_SYSCLK_DIV1;
 167:Core/Src/main.c ****   RCC_ClkInitStruct.APB1CLKDivider = RCC_HCLK_DIV1;
 168:Core/Src/main.c **** 
ARM GAS  C:\Users\ADMINI~1\AppData\Local\Temp\cc3w2Luk.s 			page 6


 169:Core/Src/main.c ****   if (HAL_RCC_ClockConfig(&RCC_ClkInitStruct, FLASH_LATENCY_1) != HAL_OK)
 170:Core/Src/main.c ****   {
 171:Core/Src/main.c ****     Error_Handler();
 172:Core/Src/main.c ****   }
 173:Core/Src/main.c ****   PeriphClkInit.PeriphClockSelection = RCC_PERIPHCLK_USART1|RCC_PERIPHCLK_I2C1;
 174:Core/Src/main.c ****   PeriphClkInit.Usart1ClockSelection = RCC_USART1CLKSOURCE_PCLK1;
 175:Core/Src/main.c ****   PeriphClkInit.I2c1ClockSelection = RCC_I2C1CLKSOURCE_HSI;
 176:Core/Src/main.c ****   if (HAL_RCCEx_PeriphCLKConfig(&PeriphClkInit) != HAL_OK)
 177:Core/Src/main.c ****   {
 178:Core/Src/main.c ****     Error_Handler();
 179:Core/Src/main.c ****   }
 180:Core/Src/main.c **** }
 181:Core/Src/main.c **** 
 182:Core/Src/main.c **** /* USER CODE BEGIN 4 */
 183:Core/Src/main.c **** 
 184:Core/Src/main.c **** /* USER CODE END 4 */
 185:Core/Src/main.c **** 
 186:Core/Src/main.c **** /**
 187:Core/Src/main.c ****   * @brief  This function is executed in case of error occurrence.
 188:Core/Src/main.c ****   * @retval None
 189:Core/Src/main.c ****   */
 190:Core/Src/main.c **** void Error_Handler(void)
 103              		.loc 1 190 6 view .LVU31
 104              	.LBE16:
 191:Core/Src/main.c **** {
 192:Core/Src/main.c ****   /* USER CODE BEGIN Error_Handler_Debug */
 193:Core/Src/main.c ****   /* User can add his own implementation to report the HAL error return state */
 194:Core/Src/main.c ****   __disable_irq();
 105              		.loc 1 194 3 view .LVU32
 106              	.LBB19:
 107              	.LBB17:
 108              	.LBI17:
 109              		.file 2 "Drivers/CMSIS/Include/cmsis_gcc.h"
   1:Drivers/CMSIS/Include/cmsis_gcc.h **** /**************************************************************************//**
   2:Drivers/CMSIS/Include/cmsis_gcc.h ****  * @file     cmsis_gcc.h
   3:Drivers/CMSIS/Include/cmsis_gcc.h ****  * @brief    CMSIS compiler GCC header file
   4:Drivers/CMSIS/Include/cmsis_gcc.h ****  * @version  V5.0.4
   5:Drivers/CMSIS/Include/cmsis_gcc.h ****  * @date     09. April 2018
   6:Drivers/CMSIS/Include/cmsis_gcc.h ****  ******************************************************************************/
   7:Drivers/CMSIS/Include/cmsis_gcc.h **** /*
   8:Drivers/CMSIS/Include/cmsis_gcc.h ****  * Copyright (c) 2009-2018 Arm Limited. All rights reserved.
   9:Drivers/CMSIS/Include/cmsis_gcc.h ****  *
  10:Drivers/CMSIS/Include/cmsis_gcc.h ****  * SPDX-License-Identifier: Apache-2.0
  11:Drivers/CMSIS/Include/cmsis_gcc.h ****  *
  12:Drivers/CMSIS/Include/cmsis_gcc.h ****  * Licensed under the Apache License, Version 2.0 (the License); you may
  13:Drivers/CMSIS/Include/cmsis_gcc.h ****  * not use this file except in compliance with the License.
  14:Drivers/CMSIS/Include/cmsis_gcc.h ****  * You may obtain a copy of the License at
  15:Drivers/CMSIS/Include/cmsis_gcc.h ****  *
  16:Drivers/CMSIS/Include/cmsis_gcc.h ****  * www.apache.org/licenses/LICENSE-2.0
  17:Drivers/CMSIS/Include/cmsis_gcc.h ****  *
  18:Drivers/CMSIS/Include/cmsis_gcc.h ****  * Unless required by applicable law or agreed to in writing, software
  19:Drivers/CMSIS/Include/cmsis_gcc.h ****  * distributed under the License is distributed on an AS IS BASIS, WITHOUT
  20:Drivers/CMSIS/Include/cmsis_gcc.h ****  * WARRANTIES OR CONDITIONS OF ANY KIND, either express or implied.
  21:Drivers/CMSIS/Include/cmsis_gcc.h ****  * See the License for the specific language governing permissions and
  22:Drivers/CMSIS/Include/cmsis_gcc.h ****  * limitations under the License.
  23:Drivers/CMSIS/Include/cmsis_gcc.h ****  */
  24:Drivers/CMSIS/Include/cmsis_gcc.h **** 
ARM GAS  C:\Users\ADMINI~1\AppData\Local\Temp\cc3w2Luk.s 			page 7


  25:Drivers/CMSIS/Include/cmsis_gcc.h **** #ifndef __CMSIS_GCC_H
  26:Drivers/CMSIS/Include/cmsis_gcc.h **** #define __CMSIS_GCC_H
  27:Drivers/CMSIS/Include/cmsis_gcc.h **** 
  28:Drivers/CMSIS/Include/cmsis_gcc.h **** /* ignore some GCC warnings */
  29:Drivers/CMSIS/Include/cmsis_gcc.h **** #pragma GCC diagnostic push
  30:Drivers/CMSIS/Include/cmsis_gcc.h **** #pragma GCC diagnostic ignored "-Wsign-conversion"
  31:Drivers/CMSIS/Include/cmsis_gcc.h **** #pragma GCC diagnostic ignored "-Wconversion"
  32:Drivers/CMSIS/Include/cmsis_gcc.h **** #pragma GCC diagnostic ignored "-Wunused-parameter"
  33:Drivers/CMSIS/Include/cmsis_gcc.h **** 
  34:Drivers/CMSIS/Include/cmsis_gcc.h **** /* Fallback for __has_builtin */
  35:Drivers/CMSIS/Include/cmsis_gcc.h **** #ifndef __has_builtin
  36:Drivers/CMSIS/Include/cmsis_gcc.h ****   #define __has_builtin(x) (0)
  37:Drivers/CMSIS/Include/cmsis_gcc.h **** #endif
  38:Drivers/CMSIS/Include/cmsis_gcc.h **** 
  39:Drivers/CMSIS/Include/cmsis_gcc.h **** /* CMSIS compiler specific defines */
  40:Drivers/CMSIS/Include/cmsis_gcc.h **** #ifndef   __ASM
  41:Drivers/CMSIS/Include/cmsis_gcc.h ****   #define __ASM                                  __asm
  42:Drivers/CMSIS/Include/cmsis_gcc.h **** #endif
  43:Drivers/CMSIS/Include/cmsis_gcc.h **** #ifndef   __INLINE
  44:Drivers/CMSIS/Include/cmsis_gcc.h ****   #define __INLINE                               inline
  45:Drivers/CMSIS/Include/cmsis_gcc.h **** #endif
  46:Drivers/CMSIS/Include/cmsis_gcc.h **** #ifndef   __STATIC_INLINE
  47:Drivers/CMSIS/Include/cmsis_gcc.h ****   #define __STATIC_INLINE                        static inline
  48:Drivers/CMSIS/Include/cmsis_gcc.h **** #endif
  49:Drivers/CMSIS/Include/cmsis_gcc.h **** #ifndef   __STATIC_FORCEINLINE                 
  50:Drivers/CMSIS/Include/cmsis_gcc.h ****   #define __STATIC_FORCEINLINE                   __attribute__((always_inline)) static inline
  51:Drivers/CMSIS/Include/cmsis_gcc.h **** #endif                                           
  52:Drivers/CMSIS/Include/cmsis_gcc.h **** #ifndef   __NO_RETURN
  53:Drivers/CMSIS/Include/cmsis_gcc.h ****   #define __NO_RETURN                            __attribute__((__noreturn__))
  54:Drivers/CMSIS/Include/cmsis_gcc.h **** #endif
  55:Drivers/CMSIS/Include/cmsis_gcc.h **** #ifndef   __USED
  56:Drivers/CMSIS/Include/cmsis_gcc.h ****   #define __USED                                 __attribute__((used))
  57:Drivers/CMSIS/Include/cmsis_gcc.h **** #endif
  58:Drivers/CMSIS/Include/cmsis_gcc.h **** #ifndef   __WEAK
  59:Drivers/CMSIS/Include/cmsis_gcc.h ****   #define __WEAK                                 __attribute__((weak))
  60:Drivers/CMSIS/Include/cmsis_gcc.h **** #endif
  61:Drivers/CMSIS/Include/cmsis_gcc.h **** #ifndef   __PACKED
  62:Drivers/CMSIS/Include/cmsis_gcc.h ****   #define __PACKED                               __attribute__((packed, aligned(1)))
  63:Drivers/CMSIS/Include/cmsis_gcc.h **** #endif
  64:Drivers/CMSIS/Include/cmsis_gcc.h **** #ifndef   __PACKED_STRUCT
  65:Drivers/CMSIS/Include/cmsis_gcc.h ****   #define __PACKED_STRUCT                        struct __attribute__((packed, aligned(1)))
  66:Drivers/CMSIS/Include/cmsis_gcc.h **** #endif
  67:Drivers/CMSIS/Include/cmsis_gcc.h **** #ifndef   __PACKED_UNION
  68:Drivers/CMSIS/Include/cmsis_gcc.h ****   #define __PACKED_UNION                         union __attribute__((packed, aligned(1)))
  69:Drivers/CMSIS/Include/cmsis_gcc.h **** #endif
  70:Drivers/CMSIS/Include/cmsis_gcc.h **** #ifndef   __UNALIGNED_UINT32        /* deprecated */
  71:Drivers/CMSIS/Include/cmsis_gcc.h ****   #pragma GCC diagnostic push
  72:Drivers/CMSIS/Include/cmsis_gcc.h ****   #pragma GCC diagnostic ignored "-Wpacked"
  73:Drivers/CMSIS/Include/cmsis_gcc.h ****   #pragma GCC diagnostic ignored "-Wattributes"
  74:Drivers/CMSIS/Include/cmsis_gcc.h ****   struct __attribute__((packed)) T_UINT32 { uint32_t v; };
  75:Drivers/CMSIS/Include/cmsis_gcc.h ****   #pragma GCC diagnostic pop
  76:Drivers/CMSIS/Include/cmsis_gcc.h ****   #define __UNALIGNED_UINT32(x)                  (((struct T_UINT32 *)(x))->v)
  77:Drivers/CMSIS/Include/cmsis_gcc.h **** #endif
  78:Drivers/CMSIS/Include/cmsis_gcc.h **** #ifndef   __UNALIGNED_UINT16_WRITE
  79:Drivers/CMSIS/Include/cmsis_gcc.h ****   #pragma GCC diagnostic push
  80:Drivers/CMSIS/Include/cmsis_gcc.h ****   #pragma GCC diagnostic ignored "-Wpacked"
  81:Drivers/CMSIS/Include/cmsis_gcc.h ****   #pragma GCC diagnostic ignored "-Wattributes"
ARM GAS  C:\Users\ADMINI~1\AppData\Local\Temp\cc3w2Luk.s 			page 8


  82:Drivers/CMSIS/Include/cmsis_gcc.h ****   __PACKED_STRUCT T_UINT16_WRITE { uint16_t v; };
  83:Drivers/CMSIS/Include/cmsis_gcc.h ****   #pragma GCC diagnostic pop
  84:Drivers/CMSIS/Include/cmsis_gcc.h ****   #define __UNALIGNED_UINT16_WRITE(addr, val)    (void)((((struct T_UINT16_WRITE *)(void *)(addr))-
  85:Drivers/CMSIS/Include/cmsis_gcc.h **** #endif
  86:Drivers/CMSIS/Include/cmsis_gcc.h **** #ifndef   __UNALIGNED_UINT16_READ
  87:Drivers/CMSIS/Include/cmsis_gcc.h ****   #pragma GCC diagnostic push
  88:Drivers/CMSIS/Include/cmsis_gcc.h ****   #pragma GCC diagnostic ignored "-Wpacked"
  89:Drivers/CMSIS/Include/cmsis_gcc.h ****   #pragma GCC diagnostic ignored "-Wattributes"
  90:Drivers/CMSIS/Include/cmsis_gcc.h ****   __PACKED_STRUCT T_UINT16_READ { uint16_t v; };
  91:Drivers/CMSIS/Include/cmsis_gcc.h ****   #pragma GCC diagnostic pop
  92:Drivers/CMSIS/Include/cmsis_gcc.h ****   #define __UNALIGNED_UINT16_READ(addr)          (((const struct T_UINT16_READ *)(const void *)(add
  93:Drivers/CMSIS/Include/cmsis_gcc.h **** #endif
  94:Drivers/CMSIS/Include/cmsis_gcc.h **** #ifndef   __UNALIGNED_UINT32_WRITE
  95:Drivers/CMSIS/Include/cmsis_gcc.h ****   #pragma GCC diagnostic push
  96:Drivers/CMSIS/Include/cmsis_gcc.h ****   #pragma GCC diagnostic ignored "-Wpacked"
  97:Drivers/CMSIS/Include/cmsis_gcc.h ****   #pragma GCC diagnostic ignored "-Wattributes"
  98:Drivers/CMSIS/Include/cmsis_gcc.h ****   __PACKED_STRUCT T_UINT32_WRITE { uint32_t v; };
  99:Drivers/CMSIS/Include/cmsis_gcc.h ****   #pragma GCC diagnostic pop
 100:Drivers/CMSIS/Include/cmsis_gcc.h ****   #define __UNALIGNED_UINT32_WRITE(addr, val)    (void)((((struct T_UINT32_WRITE *)(void *)(addr))-
 101:Drivers/CMSIS/Include/cmsis_gcc.h **** #endif
 102:Drivers/CMSIS/Include/cmsis_gcc.h **** #ifndef   __UNALIGNED_UINT32_READ
 103:Drivers/CMSIS/Include/cmsis_gcc.h ****   #pragma GCC diagnostic push
 104:Drivers/CMSIS/Include/cmsis_gcc.h ****   #pragma GCC diagnostic ignored "-Wpacked"
 105:Drivers/CMSIS/Include/cmsis_gcc.h ****   #pragma GCC diagnostic ignored "-Wattributes"
 106:Drivers/CMSIS/Include/cmsis_gcc.h ****   __PACKED_STRUCT T_UINT32_READ { uint32_t v; };
 107:Drivers/CMSIS/Include/cmsis_gcc.h ****   #pragma GCC diagnostic pop
 108:Drivers/CMSIS/Include/cmsis_gcc.h ****   #define __UNALIGNED_UINT32_READ(addr)          (((const struct T_UINT32_READ *)(const void *)(add
 109:Drivers/CMSIS/Include/cmsis_gcc.h **** #endif
 110:Drivers/CMSIS/Include/cmsis_gcc.h **** #ifndef   __ALIGNED
 111:Drivers/CMSIS/Include/cmsis_gcc.h ****   #define __ALIGNED(x)                           __attribute__((aligned(x)))
 112:Drivers/CMSIS/Include/cmsis_gcc.h **** #endif
 113:Drivers/CMSIS/Include/cmsis_gcc.h **** #ifndef   __RESTRICT
 114:Drivers/CMSIS/Include/cmsis_gcc.h ****   #define __RESTRICT                             __restrict
 115:Drivers/CMSIS/Include/cmsis_gcc.h **** #endif
 116:Drivers/CMSIS/Include/cmsis_gcc.h **** 
 117:Drivers/CMSIS/Include/cmsis_gcc.h **** 
 118:Drivers/CMSIS/Include/cmsis_gcc.h **** /* ###########################  Core Function Access  ########################### */
 119:Drivers/CMSIS/Include/cmsis_gcc.h **** /** \ingroup  CMSIS_Core_FunctionInterface
 120:Drivers/CMSIS/Include/cmsis_gcc.h ****     \defgroup CMSIS_Core_RegAccFunctions CMSIS Core Register Access Functions
 121:Drivers/CMSIS/Include/cmsis_gcc.h ****   @{
 122:Drivers/CMSIS/Include/cmsis_gcc.h ****  */
 123:Drivers/CMSIS/Include/cmsis_gcc.h **** 
 124:Drivers/CMSIS/Include/cmsis_gcc.h **** /**
 125:Drivers/CMSIS/Include/cmsis_gcc.h ****   \brief   Enable IRQ Interrupts
 126:Drivers/CMSIS/Include/cmsis_gcc.h ****   \details Enables IRQ interrupts by clearing the I-bit in the CPSR.
 127:Drivers/CMSIS/Include/cmsis_gcc.h ****            Can only be executed in Privileged modes.
 128:Drivers/CMSIS/Include/cmsis_gcc.h ****  */
 129:Drivers/CMSIS/Include/cmsis_gcc.h **** __STATIC_FORCEINLINE void __enable_irq(void)
 130:Drivers/CMSIS/Include/cmsis_gcc.h **** {
 131:Drivers/CMSIS/Include/cmsis_gcc.h ****   __ASM volatile ("cpsie i" : : : "memory");
 132:Drivers/CMSIS/Include/cmsis_gcc.h **** }
 133:Drivers/CMSIS/Include/cmsis_gcc.h **** 
 134:Drivers/CMSIS/Include/cmsis_gcc.h **** 
 135:Drivers/CMSIS/Include/cmsis_gcc.h **** /**
 136:Drivers/CMSIS/Include/cmsis_gcc.h ****   \brief   Disable IRQ Interrupts
 137:Drivers/CMSIS/Include/cmsis_gcc.h ****   \details Disables IRQ interrupts by setting the I-bit in the CPSR.
 138:Drivers/CMSIS/Include/cmsis_gcc.h ****            Can only be executed in Privileged modes.
ARM GAS  C:\Users\ADMINI~1\AppData\Local\Temp\cc3w2Luk.s 			page 9


 139:Drivers/CMSIS/Include/cmsis_gcc.h ****  */
 140:Drivers/CMSIS/Include/cmsis_gcc.h **** __STATIC_FORCEINLINE void __disable_irq(void)
 110              		.loc 2 140 27 view .LVU33
 111              	.LBB18:
 141:Drivers/CMSIS/Include/cmsis_gcc.h **** {
 142:Drivers/CMSIS/Include/cmsis_gcc.h ****   __ASM volatile ("cpsid i" : : : "memory");
 112              		.loc 2 142 3 view .LVU34
 113              		.syntax divided
 114              	@ 142 "Drivers/CMSIS/Include/cmsis_gcc.h" 1
 115 0040 72B6     		cpsid i
 116              	@ 0 "" 2
 117              		.thumb
 118              		.syntax unified
 119              	.L3:
 120              	.LBE18:
 121              	.LBE17:
 122              	.LBE19:
 195:Core/Src/main.c ****   while (1)
 123              		.loc 1 195 3 view .LVU35
 196:Core/Src/main.c ****   {
 197:Core/Src/main.c ****   }
 124              		.loc 1 197 3 view .LVU36
 195:Core/Src/main.c ****   while (1)
 125              		.loc 1 195 9 view .LVU37
 126 0042 FEE7     		b	.L3
 127              	.L2:
 163:Core/Src/main.c ****                               |RCC_CLOCKTYPE_PCLK1;
 128              		.loc 1 163 3 view .LVU38
 163:Core/Src/main.c ****                               |RCC_CLOCKTYPE_PCLK1;
 129              		.loc 1 163 31 is_stmt 0 view .LVU39
 130 0044 0723     		movs	r3, #7
 166:Core/Src/main.c ****   RCC_ClkInitStruct.APB1CLKDivider = RCC_HCLK_DIV1;
 131              		.loc 1 166 35 view .LVU40
 132 0046 0290     		str	r0, [sp, #8]
 167:Core/Src/main.c **** 
 133              		.loc 1 167 36 view .LVU41
 134 0048 0390     		str	r0, [sp, #12]
 169:Core/Src/main.c ****   {
 135              		.loc 1 169 7 view .LVU42
 136 004a 2900     		movs	r1, r5
 137 004c 6846     		mov	r0, sp
 163:Core/Src/main.c ****                               |RCC_CLOCKTYPE_PCLK1;
 138              		.loc 1 163 31 view .LVU43
 139 004e 0093     		str	r3, [sp]
 165:Core/Src/main.c ****   RCC_ClkInitStruct.AHBCLKDivider = RCC_SYSCLK_DIV1;
 140              		.loc 1 165 3 is_stmt 1 view .LVU44
 165:Core/Src/main.c ****   RCC_ClkInitStruct.AHBCLKDivider = RCC_SYSCLK_DIV1;
 141              		.loc 1 165 34 is_stmt 0 view .LVU45
 142 0050 0194     		str	r4, [sp, #4]
 166:Core/Src/main.c ****   RCC_ClkInitStruct.APB1CLKDivider = RCC_HCLK_DIV1;
 143              		.loc 1 166 3 is_stmt 1 view .LVU46
 167:Core/Src/main.c **** 
 144              		.loc 1 167 3 view .LVU47
 169:Core/Src/main.c ****   {
 145              		.loc 1 169 3 view .LVU48
 169:Core/Src/main.c ****   {
 146              		.loc 1 169 7 is_stmt 0 view .LVU49
ARM GAS  C:\Users\ADMINI~1\AppData\Local\Temp\cc3w2Luk.s 			page 10


 147 0052 FFF7FEFF 		bl	HAL_RCC_ClockConfig
 148              	.LVL4:
 169:Core/Src/main.c ****   {
 149              		.loc 1 169 6 view .LVU50
 150 0056 0028     		cmp	r0, #0
 151 0058 01D0     		beq	.L4
 171:Core/Src/main.c ****   }
 152              		.loc 1 171 5 is_stmt 1 view .LVU51
 153              	.LBB20:
 154              	.LBI20:
 190:Core/Src/main.c **** {
 155              		.loc 1 190 6 view .LVU52
 156              	.LBE20:
 194:Core/Src/main.c ****   while (1)
 157              		.loc 1 194 3 view .LVU53
 158              	.LBB23:
 159              	.LBB21:
 160              	.LBI21:
 140:Drivers/CMSIS/Include/cmsis_gcc.h **** {
 161              		.loc 2 140 27 view .LVU54
 162              	.LBB22:
 163              		.loc 2 142 3 view .LVU55
 164              		.syntax divided
 165              	@ 142 "Drivers/CMSIS/Include/cmsis_gcc.h" 1
 166 005a 72B6     		cpsid i
 167              	@ 0 "" 2
 168              		.thumb
 169              		.syntax unified
 170              	.L5:
 171              	.LBE22:
 172              	.LBE21:
 173              	.LBE23:
 195:Core/Src/main.c ****   {
 174              		.loc 1 195 3 view .LVU56
 175              		.loc 1 197 3 view .LVU57
 195:Core/Src/main.c ****   {
 176              		.loc 1 195 9 view .LVU58
 177 005c FEE7     		b	.L5
 178              	.L4:
 173:Core/Src/main.c ****   PeriphClkInit.Usart1ClockSelection = RCC_USART1CLKSOURCE_PCLK1;
 179              		.loc 1 173 3 view .LVU59
 173:Core/Src/main.c ****   PeriphClkInit.Usart1ClockSelection = RCC_USART1CLKSOURCE_PCLK1;
 180              		.loc 1 173 38 is_stmt 0 view .LVU60
 181 005e 2123     		movs	r3, #33
 174:Core/Src/main.c ****   PeriphClkInit.I2c1ClockSelection = RCC_I2C1CLKSOURCE_HSI;
 182              		.loc 1 174 38 view .LVU61
 183 0060 0690     		str	r0, [sp, #24]
 175:Core/Src/main.c ****   if (HAL_RCCEx_PeriphCLKConfig(&PeriphClkInit) != HAL_OK)
 184              		.loc 1 175 36 view .LVU62
 185 0062 0790     		str	r0, [sp, #28]
 176:Core/Src/main.c ****   {
 186              		.loc 1 176 7 view .LVU63
 187 0064 04A8     		add	r0, sp, #16
 173:Core/Src/main.c ****   PeriphClkInit.Usart1ClockSelection = RCC_USART1CLKSOURCE_PCLK1;
 188              		.loc 1 173 38 view .LVU64
 189 0066 0493     		str	r3, [sp, #16]
 174:Core/Src/main.c ****   PeriphClkInit.I2c1ClockSelection = RCC_I2C1CLKSOURCE_HSI;
ARM GAS  C:\Users\ADMINI~1\AppData\Local\Temp\cc3w2Luk.s 			page 11


 190              		.loc 1 174 3 is_stmt 1 view .LVU65
 175:Core/Src/main.c ****   if (HAL_RCCEx_PeriphCLKConfig(&PeriphClkInit) != HAL_OK)
 191              		.loc 1 175 3 view .LVU66
 176:Core/Src/main.c ****   {
 192              		.loc 1 176 3 view .LVU67
 176:Core/Src/main.c ****   {
 193              		.loc 1 176 7 is_stmt 0 view .LVU68
 194 0068 FFF7FEFF 		bl	HAL_RCCEx_PeriphCLKConfig
 195              	.LVL5:
 176:Core/Src/main.c ****   {
 196              		.loc 1 176 6 view .LVU69
 197 006c 0028     		cmp	r0, #0
 198 006e 01D0     		beq	.L1
 178:Core/Src/main.c ****   }
 199              		.loc 1 178 5 is_stmt 1 view .LVU70
 200              	.LBB24:
 201              	.LBI24:
 190:Core/Src/main.c **** {
 202              		.loc 1 190 6 view .LVU71
 203              	.LBE24:
 194:Core/Src/main.c ****   while (1)
 204              		.loc 1 194 3 view .LVU72
 205              	.LBB27:
 206              	.LBB25:
 207              	.LBI25:
 140:Drivers/CMSIS/Include/cmsis_gcc.h **** {
 208              		.loc 2 140 27 view .LVU73
 209              	.LBB26:
 210              		.loc 2 142 3 view .LVU74
 211              		.syntax divided
 212              	@ 142 "Drivers/CMSIS/Include/cmsis_gcc.h" 1
 213 0070 72B6     		cpsid i
 214              	@ 0 "" 2
 215              		.thumb
 216              		.syntax unified
 217              	.L7:
 218              	.LBE26:
 219              	.LBE25:
 220              	.LBE27:
 195:Core/Src/main.c ****   {
 221              		.loc 1 195 3 view .LVU75
 222              		.loc 1 197 3 view .LVU76
 195:Core/Src/main.c ****   {
 223              		.loc 1 195 9 view .LVU77
 224 0072 FEE7     		b	.L7
 225              	.L1:
 180:Core/Src/main.c **** 
 226              		.loc 1 180 1 is_stmt 0 view .LVU78
 227 0074 14B0     		add	sp, sp, #80
 228              		@ sp needed
 229 0076 70BD     		pop	{r4, r5, r6, pc}
 230              		.cfi_endproc
 231              	.LFE44:
 233              		.section	.rodata.main.str1.1,"aMS",%progbits,1
 234              	.LC0:
 235 0000 53656E73 		.ascii	"Sensors initial failed!\015\012\000"
 235      6F727320 
ARM GAS  C:\Users\ADMINI~1\AppData\Local\Temp\cc3w2Luk.s 			page 12


 235      696E6974 
 235      69616C20 
 235      6661696C 
 236              	.LC2:
 237 001a 53656E73 		.ascii	"Sensors initial succeeded!\015\012\000"
 237      6F727320 
 237      696E6974 
 237      69616C20 
 237      73756363 
 238              	.LC4:
 239 0037 6779726F 		.ascii	"gyro %d %d %d \015\012\000"
 239      20256420 
 239      25642025 
 239      64200D0A 
 239      00
 240              		.section	.text.startup.main,"ax",%progbits
 241              		.align	1
 242              		.global	main
 243              		.syntax unified
 244              		.code	16
 245              		.thumb_func
 247              	main:
 248              	.LFB43:
  73:Core/Src/main.c ****   /* USER CODE BEGIN 1 */
 249              		.loc 1 73 1 is_stmt 1 view -0
 250              		.cfi_startproc
 251              		@ args = 0, pretend = 0, frame = 72
 252              		@ frame_needed = 0, uses_anonymous_args = 0
  81:Core/Src/main.c **** 
 253              		.loc 1 81 3 view .LVU80
  73:Core/Src/main.c ****   /* USER CODE BEGIN 1 */
 254              		.loc 1 73 1 is_stmt 0 view .LVU81
 255 0000 10B5     		push	{r4, lr}
 256              	.LCFI2:
 257              		.cfi_def_cfa_offset 8
 258              		.cfi_offset 4, -8
 259              		.cfi_offset 14, -4
 260 0002 92B0     		sub	sp, sp, #72
 261              	.LCFI3:
 262              		.cfi_def_cfa_offset 80
  81:Core/Src/main.c **** 
 263              		.loc 1 81 3 view .LVU82
 264 0004 FFF7FEFF 		bl	HAL_Init
 265              	.LVL6:
  88:Core/Src/main.c **** 
 266              		.loc 1 88 3 is_stmt 1 view .LVU83
 267 0008 FFF7FEFF 		bl	SystemClock_Config
 268              	.LVL7:
  95:Core/Src/main.c ****   MX_DMA_Init();
 269              		.loc 1 95 3 view .LVU84
 270 000c FFF7FEFF 		bl	MX_GPIO_Init
 271              	.LVL8:
  96:Core/Src/main.c ****   MX_SPI1_Init();
 272              		.loc 1 96 3 view .LVU85
 273 0010 FFF7FEFF 		bl	MX_DMA_Init
 274              	.LVL9:
  97:Core/Src/main.c ****   MX_USART1_UART_Init();
ARM GAS  C:\Users\ADMINI~1\AppData\Local\Temp\cc3w2Luk.s 			page 13


 275              		.loc 1 97 3 view .LVU86
 276 0014 FFF7FEFF 		bl	MX_SPI1_Init
 277              	.LVL10:
  98:Core/Src/main.c ****   MX_I2C1_Init();
 278              		.loc 1 98 3 view .LVU87
 279 0018 FFF7FEFF 		bl	MX_USART1_UART_Init
 280              	.LVL11:
  99:Core/Src/main.c ****   /* USER CODE BEGIN 2 */
 281              		.loc 1 99 3 view .LVU88
 282 001c FFF7FEFF 		bl	MX_I2C1_Init
 283              	.LVL12:
 102:Core/Src/main.c **** 	Sens_ICM20 icm20;
 284              		.loc 1 102 3 view .LVU89
 103:Core/Src/main.c **** 	Sens_HMC5983 hmc5983;
 285              		.loc 1 103 2 view .LVU90
 104:Core/Src/main.c **** 
 286              		.loc 1 104 2 view .LVU91
 106:Core/Src/main.c **** 
 287              		.loc 1 106 3 view .LVU92
 108:Core/Src/main.c **** 	status += ICM20_Init(&icm20);
 288              		.loc 1 108 3 view .LVU93
 108:Core/Src/main.c **** 	status += ICM20_Init(&icm20);
 289              		.loc 1 108 13 is_stmt 0 view .LVU94
 290 0020 01A8     		add	r0, sp, #4
 291 0022 FFF7FEFF 		bl	Baro_Init
 292              	.LVL13:
 293 0026 0400     		movs	r4, r0
 294              	.LVL14:
 109:Core/Src/main.c **** 	status += HMC5983_Init(&hmc5983);
 295              		.loc 1 109 2 is_stmt 1 view .LVU95
 109:Core/Src/main.c **** 	status += HMC5983_Init(&hmc5983);
 296              		.loc 1 109 12 is_stmt 0 view .LVU96
 297 0028 06A8     		add	r0, sp, #24
 298 002a FFF7FEFF 		bl	ICM20_Init
 299              	.LVL15:
 109:Core/Src/main.c **** 	status += HMC5983_Init(&hmc5983);
 300              		.loc 1 109 9 view .LVU97
 301 002e 2418     		adds	r4, r4, r0
 302              	.LVL16:
 110:Core/Src/main.c **** 
 303              		.loc 1 110 12 view .LVU98
 304 0030 6846     		mov	r0, sp
 305 0032 FFF7FEFF 		bl	HMC5983_Init
 306              	.LVL17:
 109:Core/Src/main.c **** 	status += HMC5983_Init(&hmc5983);
 307              		.loc 1 109 9 view .LVU99
 308 0036 E4B2     		uxtb	r4, r4
 309              	.LVL18:
 110:Core/Src/main.c **** 
 310              		.loc 1 110 2 is_stmt 1 view .LVU100
 112:Core/Src/main.c ****     Debug_Printf("Sensors initial failed!\r\n");
 311              		.loc 1 112 3 view .LVU101
 110:Core/Src/main.c **** 
 312              		.loc 1 110 9 is_stmt 0 view .LVU102
 313 0038 2418     		adds	r4, r4, r0
 314              	.LVL19:
 112:Core/Src/main.c ****     Debug_Printf("Sensors initial failed!\r\n");
ARM GAS  C:\Users\ADMINI~1\AppData\Local\Temp\cc3w2Luk.s 			page 14


 315              		.loc 1 112 5 view .LVU103
 316 003a E4B2     		uxtb	r4, r4
 116:Core/Src/main.c ****   }
 317              		.loc 1 116 5 view .LVU104
 318 003c 1048     		ldr	r0, .L13
 112:Core/Src/main.c ****     Debug_Printf("Sensors initial failed!\r\n");
 319              		.loc 1 112 5 view .LVU105
 320 003e 002C     		cmp	r4, #0
 321 0040 00D0     		beq	.L12
 113:Core/Src/main.c ****   }
 322              		.loc 1 113 5 is_stmt 1 view .LVU106
 323 0042 1048     		ldr	r0, .L13+4
 324              	.L12:
 325              	.LBB28:
 132:Core/Src/main.c ****   }
 326              		.loc 1 132 3 is_stmt 0 view .LVU107
 327 0044 FA24     		movs	r4, #250
 328              	.LBE28:
 113:Core/Src/main.c ****   }
 329              		.loc 1 113 5 view .LVU108
 330 0046 FFF7FEFF 		bl	Debug_Printf
 331              	.LVL20:
 332              	.LBB29:
 132:Core/Src/main.c ****   }
 333              		.loc 1 132 3 view .LVU109
 334 004a A400     		lsls	r4, r4, #2
 335              	.L10:
 336              	.LBE29:
 122:Core/Src/main.c ****   {
 337              		.loc 1 122 3 is_stmt 1 discriminator 1 view .LVU110
 338              	.LBB30:
 128:Core/Src/main.c **** 		ICM20_GetGyroADC(&icm20);
 339              		.loc 1 128 3 discriminator 1 view .LVU111
 128:Core/Src/main.c **** 		ICM20_GetGyroADC(&icm20);
 340              		.loc 1 128 20 is_stmt 0 discriminator 1 view .LVU112
 341 004c 06A8     		add	r0, sp, #24
 342 004e FFF7FEFF 		bl	ICM20_GetAccelADC
 343              	.LVL21:
 129:Core/Src/main.c **** 		ICM20_GetTemperatue(&icm20);
 344              		.loc 1 129 3 is_stmt 1 discriminator 1 view .LVU113
 345 0052 06A8     		add	r0, sp, #24
 346 0054 FFF7FEFF 		bl	ICM20_GetGyroADC
 347              	.LVL22:
 130:Core/Src/main.c **** 		Debug_Printf("gyro %d %d %d \r\n", icm20.gyro_adc[0], icm20.gyro_adc[1], icm20.gyro_adc[2]);
 348              		.loc 1 130 3 discriminator 1 view .LVU114
 349 0058 06A8     		add	r0, sp, #24
 350 005a FFF7FEFF 		bl	ICM20_GetTemperatue
 351              	.LVL23:
 131:Core/Src/main.c **** 		Sys_Delay(1000);
 352              		.loc 1 131 3 discriminator 1 view .LVU115
 353 005e 6B46     		mov	r3, sp
 354 0060 2A22     		movs	r2, #42
 355 0062 9B5E     		ldrsh	r3, [r3, r2]
 356 0064 6A46     		mov	r2, sp
 357 0066 2821     		movs	r1, #40
 358 0068 525E     		ldrsh	r2, [r2, r1]
 359 006a 6946     		mov	r1, sp
ARM GAS  C:\Users\ADMINI~1\AppData\Local\Temp\cc3w2Luk.s 			page 15


 360 006c 2620     		movs	r0, #38
 361 006e 095E     		ldrsh	r1, [r1, r0]
 362 0070 0548     		ldr	r0, .L13+8
 363 0072 FFF7FEFF 		bl	Debug_Printf
 364              	.LVL24:
 132:Core/Src/main.c ****   }
 365              		.loc 1 132 3 discriminator 1 view .LVU116
 366 0076 2000     		movs	r0, r4
 367 0078 FFF7FEFF 		bl	Sys_Delay
 368              	.LVL25:
 369              	.LBE30:
 122:Core/Src/main.c ****   {
 370              		.loc 1 122 9 discriminator 1 view .LVU117
 371 007c E6E7     		b	.L10
 372              	.L14:
 373 007e C046     		.align	2
 374              	.L13:
 375 0080 1A000000 		.word	.LC2
 376 0084 00000000 		.word	.LC0
 377 0088 37000000 		.word	.LC4
 378              		.cfi_endproc
 379              	.LFE43:
 381              		.section	.text.Error_Handler,"ax",%progbits
 382              		.align	1
 383              		.global	Error_Handler
 384              		.syntax unified
 385              		.code	16
 386              		.thumb_func
 388              	Error_Handler:
 389              	.LFB45:
 191:Core/Src/main.c ****   /* USER CODE BEGIN Error_Handler_Debug */
 390              		.loc 1 191 1 view -0
 391              		.cfi_startproc
 392              		@ Volatile: function does not return.
 393              		@ args = 0, pretend = 0, frame = 0
 394              		@ frame_needed = 0, uses_anonymous_args = 0
 395              		@ link register save eliminated.
 194:Core/Src/main.c ****   while (1)
 396              		.loc 1 194 3 view .LVU119
 397              	.LBB31:
 398              	.LBI31:
 140:Drivers/CMSIS/Include/cmsis_gcc.h **** {
 399              		.loc 2 140 27 view .LVU120
 400              	.LBB32:
 401              		.loc 2 142 3 view .LVU121
 402              		.syntax divided
 403              	@ 142 "Drivers/CMSIS/Include/cmsis_gcc.h" 1
 404 0000 72B6     		cpsid i
 405              	@ 0 "" 2
 406              		.thumb
 407              		.syntax unified
 408              	.L16:
 409              	.LBE32:
 410              	.LBE31:
 195:Core/Src/main.c ****   {
 411              		.loc 1 195 3 discriminator 1 view .LVU122
 412              		.loc 1 197 3 discriminator 1 view .LVU123
ARM GAS  C:\Users\ADMINI~1\AppData\Local\Temp\cc3w2Luk.s 			page 16


 195:Core/Src/main.c ****   {
 413              		.loc 1 195 9 discriminator 1 view .LVU124
 414 0002 FEE7     		b	.L16
 415              		.cfi_endproc
 416              	.LFE45:
 418              		.text
 419              	.Letext0:
 420              		.file 3 "d:\\program files (x86)\\gnu arm embedded toolchain\\10 2021.10\\arm-none-eabi\\include\\
 421              		.file 4 "d:\\program files (x86)\\gnu arm embedded toolchain\\10 2021.10\\arm-none-eabi\\include\\
 422              		.file 5 "Drivers/STM32F0xx_HAL_Driver/Inc/stm32f0xx_hal_rcc.h"
 423              		.file 6 "Drivers/STM32F0xx_HAL_Driver/Inc/stm32f0xx_hal_rcc_ex.h"
 424              		.file 7 "Modules/Sensors/Baro_MS5611.h"
 425              		.file 8 "Modules/Sensors/ICM20602.h"
 426              		.file 9 "Modules/Sensors/HMC5983.h"
 427              		.file 10 "Modules/Connectivity/Uart_Driver.h"
 428              		.file 11 "Modules/System/System_Tick.h"
 429              		.file 12 "Drivers/STM32F0xx_HAL_Driver/Inc/stm32f0xx_hal.h"
 430              		.file 13 "Core/Inc/gpio.h"
 431              		.file 14 "Core/Inc/dma.h"
 432              		.file 15 "Core/Inc/spi.h"
 433              		.file 16 "Core/Inc/usart.h"
 434              		.file 17 "Core/Inc/i2c.h"
 435              		.file 18 "Drivers/STM32F0xx_HAL_Driver/Inc/stm32f0xx_hal_def.h"
 436              		.file 19 "<built-in>"
ARM GAS  C:\Users\ADMINI~1\AppData\Local\Temp\cc3w2Luk.s 			page 17

